target datalayout = "e-m:e-p270:32:32-p271:32:32-p272:64:64-i64:64-i128:128-f80:128-n8:16:32:64-S128"
target triple = "x86_64-pc-linux-gnu"

%struct.ParallelSlotArray = type { i32, ptr, ptr, i8, ptr, [0 x %struct.ParallelSlot] }
%struct.ParallelSlot = type { ptr, i8, ptr, ptr }

; Function Attrs: nounwind uwtable
define internal zeroext i1 @processQueryResult(ptr noundef %0, ptr noundef %1) #0 {
  %3 = alloca i1, align 1
  %4 = alloca ptr, align 8
  %5 = alloca ptr, align 8
  store ptr %0, ptr %4, align 8
  store ptr %1, ptr %5, align 8
  %6 = load ptr, ptr %4, align 8
  %7 = getelementptr inbounds nuw %struct.ParallelSlot, ptr %6, i32 0, i32 2
  %8 = load ptr, ptr %7, align 8
  %9 = load ptr, ptr %5, align 8
  %10 = load ptr, ptr %4, align 8
  %11 = getelementptr inbounds nuw %struct.ParallelSlot, ptr %10, i32 0, i32 0
  %12 = load ptr, ptr %11, align 8
  %13 = load ptr, ptr %4, align 8
  %14 = getelementptr inbounds nuw %struct.ParallelSlot, ptr %13, i32 0, i32 3
  %15 = load ptr, ptr %14, align 8
  %16 = call zeroext i1 %8(ptr noundef %9, ptr noundef %12, ptr noundef %15)
  br i1 %16, label %18, label %17

17:                                               ; preds = %2
  store i1 false, ptr %3, align 1
  br label %20

18:                                               ; preds = %2
  %19 = load ptr, ptr %5, align 8
  call void @PQclear(ptr noundef %19)
  store i1 true, ptr %3, align 1
  br label %20

20:                                               ; preds = %18, %17
  %21 = load i1, ptr %3, align 1
  ret i1 %21
}

; Function Attrs: inlinehint nounwind uwtable
define internal void @ParallelSlotClearHandler(ptr noundef %0) #3 {
  %2 = alloca ptr, align 8
  store ptr %0, ptr %2, align 8
  %3 = load ptr, ptr %2, align 8
  %4 = getelementptr inbounds nuw %struct.ParallelSlot, ptr %3, i32 0, i32 2
  store ptr null, ptr %4, align 8
  %5 = load ptr, ptr %2, align 8
  %6 = getelementptr inbounds nuw %struct.ParallelSlot, ptr %5, i32 0, i32 3
  store ptr null, ptr %6, align 8
  ret void
}

; Function Attrs: nounwind uwtable
define internal zeroext i1 @consumeQueryResult(ptr noundef %0) #0 {
  %2 = alloca ptr, align 8
  %3 = alloca i8, align 1
  %4 = alloca ptr, align 8
  store ptr %0, ptr %2, align 8
  call void @llvm.lifetime.start.p0(i64 1, ptr %3) #8
  store i8 1, ptr %3, align 1
  call void @llvm.lifetime.start.p0(i64 8, ptr %4) #8
  %5 = load ptr, ptr %2, align 8
  %6 = getelementptr inbounds nuw %struct.ParallelSlot, ptr %5, i32 0, i32 0
  %7 = load ptr, ptr %6, align 8
  call void @SetCancelConn(ptr noundef %7)
  br label %8

8:                                                ; preds = %19, %1
  %9 = load ptr, ptr %2, align 8
  %10 = getelementptr inbounds nuw %struct.ParallelSlot, ptr %9, i32 0, i32 0
  %11 = load ptr, ptr %10, align 8
  %12 = call ptr @PQgetResult(ptr noundef %11)
  store ptr %12, ptr %4, align 8
  %13 = icmp ne ptr %12, null
  br i1 %13, label %14, label %20

14:                                               ; preds = %8
  %15 = load ptr, ptr %2, align 8
  %16 = load ptr, ptr %4, align 8
  %17 = call zeroext i1 @processQueryResult(ptr noundef %15, ptr noundef %16)
  br i1 %17, label %19, label %18

18:                                               ; preds = %14
  store i8 0, ptr %3, align 1
  br label %19

19:                                               ; preds = %18, %14
  br label %8, !llvm.loop !16

20:                                               ; preds = %8
  call void @ResetCancelConn()
  %21 = load i8, ptr %3, align 1, !range !4, !noundef !5
  %22 = trunc i8 %21 to i1
  call void @llvm.lifetime.end.p0(i64 8, ptr %4) #8
  call void @llvm.lifetime.end.p0(i64 1, ptr %3) #8
  ret i1 %22
}

; Function Attrs: nounwind uwtable
define dso_local zeroext i1 @ParallelSlotsWaitCompletion(ptr noundef %0) #0 {
  %2 = alloca i1, align 1
  %3 = alloca ptr, align 8
  %4 = alloca i32, align 4
  %5 = alloca i32, align 4
  store ptr %0, ptr %3, align 8
  call void @llvm.lifetime.start.p0(i64 4, ptr %4) #8
  store i32 0, ptr %4, align 4
  br label %6

6:                                                ; preds = %42, %1
  %7 = load i32, ptr %4, align 4
  %8 = load ptr, ptr %3, align 8
  %9 = getelementptr inbounds nuw %struct.ParallelSlotArray, ptr %8, i32 0, i32 0
  %10 = load i32, ptr %9, align 8
  %11 = icmp slt i32 %7, %10
  br i1 %11, label %12, label %45

12:                                               ; preds = %6
  %13 = load ptr, ptr %3, align 8
  %14 = getelementptr inbounds nuw %struct.ParallelSlotArray, ptr %13, i32 0, i32 5
  %15 = load i32, ptr %4, align 4
  %16 = sext i32 %15 to i64
  %17 = getelementptr inbounds [0 x %struct.ParallelSlot], ptr %14, i64 0, i64 %16
  %18 = getelementptr inbounds nuw %struct.ParallelSlot, ptr %17, i32 0, i32 0
  %19 = load ptr, ptr %18, align 8
  %20 = icmp eq ptr %19, null
  br i1 %20, label %21, label %22

21:                                               ; preds = %12
  br label %42

22:                                               ; preds = %12
  %23 = load ptr, ptr %3, align 8
  %24 = getelementptr inbounds nuw %struct.ParallelSlotArray, ptr %23, i32 0, i32 5
  %25 = load i32, ptr %4, align 4
  %26 = sext i32 %25 to i64
  %27 = getelementptr inbounds [0 x %struct.ParallelSlot], ptr %24, i64 0, i64 %26
  %28 = call zeroext i1 @consumeQueryResult(ptr noundef %27)
  br i1 %28, label %30, label %29

29:                                               ; preds = %22
  store i1 false, ptr %2, align 1
  store i32 1, ptr %5, align 4
  br label %46

30:                                               ; preds = %22
  %31 = load ptr, ptr %3, align 8
  %32 = getelementptr inbounds nuw %struct.ParallelSlotArray, ptr %31, i32 0, i32 5
  %33 = load i32, ptr %4, align 4
  %34 = sext i32 %33 to i64
  %35 = getelementptr inbounds [0 x %struct.ParallelSlot], ptr %32, i64 0, i64 %34
  %36 = getelementptr inbounds nuw %struct.ParallelSlot, ptr %35, i32 0, i32 1
  store i8 0, ptr %36, align 8
  %37 = load ptr, ptr %3, align 8
  %38 = getelementptr inbounds nuw %struct.ParallelSlotArray, ptr %37, i32 0, i32 5
  %39 = load i32, ptr %4, align 4
  %40 = sext i32 %39 to i64
  %41 = getelementptr inbounds [0 x %struct.ParallelSlot], ptr %38, i64 0, i64 %40
  call void @ParallelSlotClearHandler(ptr noundef %41)
  br label %42

42:                                               ; preds = %30, %21
  %43 = load i32, ptr %4, align 4
  %44 = add i32 %43, 1
  store i32 %44, ptr %4, align 4
  br label %6, !llvm.loop !15

45:                                               ; preds = %6
  store i1 true, ptr %2, align 1
  store i32 1, ptr %5, align 4
  br label %46

46:                                               ; preds = %45, %29
  call void @llvm.lifetime.end.p0(i64 4, ptr %4) #8
  %47 = load i1, ptr %2, align 1
  ret i1 %47
}