; Function Attrs: nounwind uwtable
define dso_local noundef zeroext i1 @ParallelSlotsWaitCompletion(ptr noundef captures(none) %0) local_unnamed_addr #0 {
  %2 = load i32, ptr %0, align 8
  %3 = icmp slt i32 %2, 1
  br i1 %3, label %._crit_edge, label %.lr.ph

.lr.ph:                                           ; preds = %1
  %4 = getelementptr inbounds nuw i8, ptr %0, i64 40
  br label %5

5:                                                ; preds = %.lr.ph, %27
  %6 = phi i32 [ %2, %.lr.ph ], [ %28, %27 ]
  %indvars.iv = phi i64 [ 0, %.lr.ph ], [ %indvars.iv.next, %27 ]
  %7 = getelementptr inbounds nuw [0 x %struct.ParallelSlot], ptr %4, i64 0, i64 %indvars.iv
  %8 = load ptr, ptr %7, align 8
  %9 = icmp eq ptr %8, null
  br i1 %9, label %27, label %10

10:                                               ; preds = %5
  tail call void @SetCancelConn(ptr noundef nonnull %8) #9
  %11 = load ptr, ptr %7, align 8
  %12 = tail call ptr @PQgetResult(ptr noundef %11) #9
  %.not5.i = icmp eq ptr %12, null
  br i1 %.not5.i, label %consumeQueryResult.exit.thread, label %.lr.ph.i

consumeQueryResult.exit.thread:                   ; preds = %10
  tail call void @ResetCancelConn() #9
  br label %24

.lr.ph.i:                                         ; preds = %10
  %13 = getelementptr inbounds nuw i8, ptr %7, i64 16
  %14 = getelementptr inbounds nuw i8, ptr %7, i64 24
  br label %15

15:                                               ; preds = %processQueryResult.exit.i, %.lr.ph.i
  %16 = phi ptr [ %12, %.lr.ph.i ], [ %23, %processQueryResult.exit.i ]
  %.06.i = phi i1 [ true, %.lr.ph.i ], [ %spec.select.i, %processQueryResult.exit.i ]
  %17 = load ptr, ptr %13, align 8
  %18 = load ptr, ptr %7, align 8
  %19 = load ptr, ptr %14, align 8
  %20 = tail call zeroext i1 %17(ptr noundef nonnull %16, ptr noundef %18, ptr noundef %19) #9
  br i1 %20, label %21, label %processQueryResult.exit.i

21:                                               ; preds = %15
  tail call void @PQclear(ptr noundef nonnull %16) #9
  br label %processQueryResult.exit.i

processQueryResult.exit.i:                        ; preds = %21, %15
  %spec.select.i = phi i1 [ false, %15 ], [ %.06.i, %21 ]
  %22 = load ptr, ptr %7, align 8
  %23 = tail call ptr @PQgetResult(ptr noundef %22) #9
  %.not.i = icmp eq ptr %23, null
  br i1 %.not.i, label %consumeQueryResult.exit, label %15, !llvm.loop !13

consumeQueryResult.exit:                          ; preds = %processQueryResult.exit.i
  tail call void @ResetCancelConn() #9
  br i1 %spec.select.i, label %24, label %._crit_edge

24:                                               ; preds = %consumeQueryResult.exit.thread, %consumeQueryResult.exit
  %25 = getelementptr inbounds nuw i8, ptr %7, i64 8
  store i8 0, ptr %25, align 8
  %26 = getelementptr inbounds nuw i8, ptr %7, i64 16
  tail call void @llvm.memset.p0.i64(ptr noundef nonnull align 8 dereferenceable(16) %26, i8 0, i64 16, i1 false)
  %.pre = load i32, ptr %0, align 8
  br label %27

27:                                               ; preds = %5, %24
  %28 = phi i32 [ %6, %5 ], [ %.pre, %24 ]
  %indvars.iv.next = add nuw nsw i64 %indvars.iv, 1
  %29 = sext i32 %28 to i64
  %.not = icmp slt i64 %indvars.iv.next, %29
  br i1 %.not, label %5, label %._crit_edge, !llvm.loop !14

._crit_edge:                                      ; preds = %consumeQueryResult.exit, %27, %1
  %.lcssa = phi i1 [ true, %1 ], [ true, %27 ], [ false, %consumeQueryResult.exit ]
  ret i1 %.lcssa
}